target datalayout = "e-m:e-p270:32:32-p271:32:32-p272:64:64-i64:64-i128:128-f80:128-n8:16:32:64-S128"
target triple = "x86_64-pc-linux-gnu"

%struct.slurm_conf_t = type { i64, ptr, i16, ptr, ptr, ptr, ptr, ptr, i16, ptr, ptr, ptr, ptr, ptr, ptr, ptr, i16, ptr, ptr, ptr, ptr, i16, ptr, ptr, ptr, i64, ptr, ptr, ptr, ptr, i16, ptr, ptr, i16, i32, ptr, i32, ptr, i32, i32, ptr, ptr, i64, i64, ptr, i16, i16, ptr, i32, i32, ptr, i32, ptr, i32, i16, i16, i16, ptr, i16, i16, ptr, ptr, i32, i16, i16, ptr, i32, i16, ptr, ptr, ptr, ptr, i16, ptr, ptr, ptr, ptr, i32, ptr, ptr, ptr, ptr, i16, i16, ptr, i32, i32, i32, i16, i16, ptr, ptr, i16, ptr, ptr, i32, i32, i32, i32, i32, i64, i32, i32, i16, ptr, ptr, i32, ptr, ptr, ptr, i16, i32, ptr, ptr, i16, ptr, ptr, i32, i16, ptr, ptr, ptr, ptr, i32, i32, i16, i16, i32, ptr, i16, ptr, i32, i32, i32, i32, i32, i32, ptr, i16, ptr, ptr, i32, i16, ptr, i32, i16, i16, ptr, ptr, ptr, i16, ptr, ptr, ptr, ptr, i16, i16, ptr, i16, ptr, i16, ptr, i16, ptr, i16, ptr, ptr, ptr, ptr, i16, ptr, ptr, ptr, i32, ptr, i32, ptr, ptr, i16, ptr, ptr, i32, i16, ptr, ptr, i16, i16, ptr, i16, ptr, ptr, ptr, i32, ptr, i16, i16, ptr, ptr, ptr, ptr, ptr, ptr, ptr, ptr, i16, i32, i16, ptr, ptr, ptr, ptr, i32, ptr, ptr, ptr, i16, ptr, ptr, ptr, i16, ptr, i16, ptr, i16, i16, ptr }

@slurm_conf = external global %struct.slurm_conf_t, align 8
@clustername_existed = external global i32, align 4
@.str.229 = private unnamed_addr constant [15 x i8] c"%s/clustername\00", align 1
@.str.233 = private unnamed_addr constant [6 x i8] c"%s|%u\00", align 1
@.str.234 = private unnamed_addr constant [55 x i8] c"creating clustername file: ClusterName=%s ClusterID=%u\00", align 1
@.str.235 = private unnamed_addr constant [2 x i8] c"w\00", align 1
@.str.236 = private unnamed_addr constant [29 x i8] c"%s: failed to create file %s\00", align 1
@__func__._create_clustername_file = private unnamed_addr constant [25 x i8] c"_create_clustername_file\00", align 1
@.str.237 = private unnamed_addr constant [31 x i8] c"%s: failed to write to file %s\00", align 1

; Function Attrs: nounwind uwtable
define internal void @_create_clustername_file() #0 {
  %1 = alloca ptr, align 8
  %2 = alloca ptr, align 8
  %3 = alloca ptr, align 8
  call void @llvm.lifetime.start.p0(i64 8, ptr %1) #11
  call void @llvm.lifetime.start.p0(i64 8, ptr %2) #11
  store ptr null, ptr %2, align 8
  call void @llvm.lifetime.start.p0(i64 8, ptr %3) #11
  %4 = load ptr, ptr getelementptr inbounds nuw (%struct.slurm_conf_t, ptr @slurm_conf, i32 0, i32 31), align 8
  %5 = load i16, ptr getelementptr inbounds nuw (%struct.slurm_conf_t, ptr @slurm_conf, i32 0, i32 30), align 8
  %6 = zext i16 %5 to i32
  %7 = call ptr (ptr, ...) @xstrdup_printf(ptr noundef @.str.233, ptr noundef %4, i32 noundef %6)
  store ptr %7, ptr %3, align 8
  %8 = load ptr, ptr getelementptr inbounds nuw (%struct.slurm_conf_t, ptr @slurm_conf, i32 0, i32 199), align 8
  %9 = call ptr (ptr, ...) @xstrdup_printf(ptr noundef @.str.229, ptr noundef %8)
  store ptr %9, ptr %2, align 8
  br label %10

10:                                               ; preds = %0
  br label %11

11:                                               ; preds = %10
  %12 = call i32 @get_log_level()
  %13 = icmp sge i32 %12, 3
  br i1 %13, label %14, label %18

14:                                               ; preds = %11
  %15 = load ptr, ptr getelementptr inbounds nuw (%struct.slurm_conf_t, ptr @slurm_conf, i32 0, i32 31), align 8
  %16 = load i16, ptr getelementptr inbounds nuw (%struct.slurm_conf_t, ptr @slurm_conf, i32 0, i32 30), align 8
  %17 = zext i16 %16 to i32
  call void (i32, ptr, ...) @log_var(i32 noundef 3, ptr noundef @.str.234, ptr noundef %15, i32 noundef %17)
  br label %18

18:                                               ; preds = %14, %11
  br label %19

19:                                               ; preds = %18
  br label %20

20:                                               ; preds = %19
  br label %21

21:                                               ; preds = %20
  br label %22

22:                                               ; preds = %21
  store i32 0, ptr @clustername_existed, align 4
  %23 = load ptr, ptr %2, align 8
  %24 = call noalias ptr @fopen(ptr noundef %23, ptr noundef @.str.235)
  store ptr %24, ptr %1, align 8
  %25 = icmp ne ptr %24, null
  br i1 %25, label %28, label %26

26:                                               ; preds = %22
  %27 = load ptr, ptr %2, align 8
  call void (ptr, ...) @fatal(ptr noundef @.str.236, ptr noundef @__func__._create_clustername_file, ptr noundef %27) #12
  unreachable

28:                                               ; preds = %22
  %29 = load ptr, ptr %3, align 8
  %30 = load ptr, ptr %1, align 8
  %31 = call i32 @fputs(ptr noundef %29, ptr noundef %30)
  %32 = icmp slt i32 %31, 0
  br i1 %32, label %33, label %35

33:                                               ; preds = %28
  %34 = load ptr, ptr %2, align 8
  call void (ptr, ...) @fatal(ptr noundef @.str.237, ptr noundef @__func__._create_clustername_file, ptr noundef %34) #12
  unreachable

35:                                               ; preds = %28
  %36 = load ptr, ptr %1, align 8
  %37 = call i32 @fclose(ptr noundef %36)
  call void @slurm_xfree(ptr noundef %3)
  call void @slurm_xfree(ptr noundef %2)
  call void @llvm.lifetime.end.p0(i64 8, ptr %3) #11
  call void @llvm.lifetime.end.p0(i64 8, ptr %2) #11
  call void @llvm.lifetime.end.p0(i64 8, ptr %1) #11
  ret void
}