; Function Attrs: nounwind uwtable
define internal fastcc void @_create_clustername_file() unnamed_addr #6 {
  %1 = alloca ptr, align 8
  %2 = alloca ptr, align 8
  call void @llvm.lifetime.start.p0(i64 8, ptr nonnull %1) #19
  call void @llvm.lifetime.start.p0(i64 8, ptr nonnull %2) #19
  %3 = load ptr, ptr getelementptr inbounds nuw (i8, ptr @slurm_conf, i64 248), align 8
  %4 = load i16, ptr getelementptr inbounds nuw (i8, ptr @slurm_conf, i64 240), align 8
  %5 = zext i16 %4 to i32
  %6 = tail call ptr (ptr, ...) @xstrdup_printf(ptr noundef nonnull @.str.233, ptr noundef %3, i32 noundef %5) #19
  store ptr %6, ptr %2, align 8
  %7 = load ptr, ptr getelementptr inbounds nuw (i8, ptr @slurm_conf, i64 1336), align 8
  %8 = tail call ptr (ptr, ...) @xstrdup_printf(ptr noundef nonnull @.str.229, ptr noundef %7) #19
  store ptr %8, ptr %1, align 8
  %9 = tail call i32 @get_log_level() #19
  %10 = icmp sgt i32 %9, 2
  br i1 %10, label %11, label %15

11:                                               ; preds = %0
  %12 = load ptr, ptr getelementptr inbounds nuw (i8, ptr @slurm_conf, i64 248), align 8
  %13 = load i16, ptr getelementptr inbounds nuw (i8, ptr @slurm_conf, i64 240), align 8
  %14 = zext i16 %13 to i32
  tail call void (i32, ptr, ...) @log_var(i32 noundef 3, ptr noundef nonnull @.str.234, ptr noundef %12, i32 noundef %14) #19
  br label %15

15:                                               ; preds = %11, %0
  store i32 0, ptr @clustername_existed, align 4
  %16 = tail call noalias ptr @fopen(ptr noundef %8, ptr noundef nonnull @.str.235)
  %.not = icmp eq ptr %16, null
  br i1 %.not, label %17, label %18

17:                                               ; preds = %15
  tail call void (ptr, ...) @fatal(ptr noundef nonnull @.str.236, ptr noundef nonnull @__func__._create_clustername_file, ptr noundef %8) #20
  unreachable

18:                                               ; preds = %15
  %19 = tail call i32 @fputs(ptr noundef %6, ptr noundef nonnull %16)
  %20 = icmp slt i32 %19, 0
  br i1 %20, label %21, label %22

21:                                               ; preds = %18
  tail call void (ptr, ...) @fatal(ptr noundef nonnull @.str.237, ptr noundef nonnull @__func__._create_clustername_file, ptr noundef %8) #20
  unreachable

22:                                               ; preds = %18
  %23 = tail call i32 @fclose(ptr noundef nonnull %16)
  call void @slurm_xfree(ptr noundef nonnull %2) #19
  call void @slurm_xfree(ptr noundef nonnull %1) #19
  call void @llvm.lifetime.end.p0(i64 8, ptr nonnull %2) #19
  call void @llvm.lifetime.end.p0(i64 8, ptr nonnull %1) #19
  ret void
}